target datalayout = "e-m:e-p270:32:32-p271:32:32-p272:64:64-i64:64-i128:128-f80:128-n8:16:32:64-S128"
target triple = "x86_64-pc-linux-gnu"

%struct.stat = type { i64, i64, i64, i32, i32, i32, i32, i64, i64, i64, i64, %struct.timespec, %struct.timespec, %struct.timespec, [3 x i64] }
%struct.timespec = type { i64, i64 }

@.str.3 = private unnamed_addr constant [3 x i8] c":/\00", align 1
@.str.4 = private unnamed_addr constant [3 x i8] c":!\00", align 1
@.str.5 = private unnamed_addr constant [3 x i8] c":^\00", align 1
@.str.6 = private unnamed_addr constant [20 x i8] c"failed to stat '%s'\00", align 1

; Function Attrs: inlinehint nounwind uwtable
define internal i32 @is_missing_file_error(i32 noundef %0) #2 {
  %2 = alloca i32, align 4
  store i32 %0, ptr %2, align 4, !tbaa !9
  %3 = load i32, ptr %2, align 4, !tbaa !9
  %4 = icmp eq i32 %3, 2
  br i1 %4, label %8, label %5

5:                                                ; preds = %1
  %6 = load i32, ptr %2, align 4, !tbaa !9
  %7 = icmp eq i32 %6, 20
  br label %8

8:                                                ; preds = %5, %1
  %9 = phi i1 [ true, %1 ], [ %7, %5 ]
  %10 = zext i1 %9 to i32
  ret i32 %10
}

; Function Attrs: inlinehint nounwind uwtable
define internal zeroext i1 @skip_prefix(ptr noundef %0, ptr noundef %1, ptr noundef %2) #2 {
  %4 = alloca i1, align 1
  %5 = alloca ptr, align 8
  %6 = alloca ptr, align 8
  %7 = alloca ptr, align 8
  store ptr %0, ptr %5, align 8, !tbaa !4
  store ptr %1, ptr %6, align 8, !tbaa !4
  store ptr %2, ptr %7, align 8, !tbaa !22
  br label %8

8:                                                ; preds = %16, %3
  %9 = load ptr, ptr %6, align 8, !tbaa !4
  %10 = load i8, ptr %9, align 1, !tbaa !13
  %11 = icmp ne i8 %10, 0
  br i1 %11, label %15, label %12

12:                                               ; preds = %8
  %13 = load ptr, ptr %5, align 8, !tbaa !4
  %14 = load ptr, ptr %7, align 8, !tbaa !22
  store ptr %13, ptr %14, align 8, !tbaa !4
  store i1 true, ptr %4, align 1
  br label %27

15:                                               ; preds = %8
  br label %16

16:                                               ; preds = %15
  %17 = load ptr, ptr %5, align 8, !tbaa !4
  %18 = getelementptr inbounds nuw i8, ptr %17, i32 1
  store ptr %18, ptr %5, align 8, !tbaa !4
  %19 = load i8, ptr %17, align 1, !tbaa !13
  %20 = sext i8 %19 to i32
  %21 = load ptr, ptr %6, align 8, !tbaa !4
  %22 = getelementptr inbounds nuw i8, ptr %21, i32 1
  store ptr %22, ptr %6, align 8, !tbaa !4
  %23 = load i8, ptr %21, align 1, !tbaa !13
  %24 = sext i8 %23 to i32
  %25 = icmp eq i32 %20, %24
  br i1 %25, label %8, label %26, !llvm.loop !24

26:                                               ; preds = %16
  store i1 false, ptr %4, align 1
  br label %27

27:                                               ; preds = %26, %12
  %28 = load i1, ptr %4, align 1
  ret i1 %28
}

; Function Attrs: nounwind uwtable
define dso_local i32 @check_filename(ptr noundef %0, ptr noundef %1) #0 {
  %3 = alloca i32, align 4
  %4 = alloca ptr, align 8
  %5 = alloca ptr, align 8
  %6 = alloca ptr, align 8
  %7 = alloca %struct.stat, align 8
  %8 = alloca i32, align 4
  store ptr %0, ptr %4, align 8, !tbaa !4
  store ptr %1, ptr %5, align 8, !tbaa !4
  call void @llvm.lifetime.start.p0(i64 8, ptr %6) #13
  store ptr null, ptr %6, align 8, !tbaa !4
  call void @llvm.lifetime.start.p0(i64 144, ptr %7) #13
  %9 = load ptr, ptr %5, align 8, !tbaa !4
  %10 = call zeroext i1 @skip_prefix(ptr noundef %9, ptr noundef @.str.3, ptr noundef %5)
  br i1 %10, label %11, label %17

11:                                               ; preds = %2
  %12 = load ptr, ptr %5, align 8, !tbaa !4
  %13 = load i8, ptr %12, align 1, !tbaa !13
  %14 = icmp ne i8 %13, 0
  br i1 %14, label %16, label %15

15:                                               ; preds = %11
  store i32 1, ptr %3, align 4
  store i32 1, ptr %8, align 4
  br label %53

16:                                               ; preds = %11
  store ptr null, ptr %4, align 8, !tbaa !4
  br label %30

17:                                               ; preds = %2
  %18 = load ptr, ptr %5, align 8, !tbaa !4
  %19 = call zeroext i1 @skip_prefix(ptr noundef %18, ptr noundef @.str.4, ptr noundef %5)
  br i1 %19, label %23, label %20

20:                                               ; preds = %17
  %21 = load ptr, ptr %5, align 8, !tbaa !4
  %22 = call zeroext i1 @skip_prefix(ptr noundef %21, ptr noundef @.str.5, ptr noundef %5)
  br i1 %22, label %23, label %29

23:                                               ; preds = %20, %17
  %24 = load ptr, ptr %5, align 8, !tbaa !4
  %25 = load i8, ptr %24, align 1, !tbaa !13
  %26 = icmp ne i8 %25, 0
  br i1 %26, label %28, label %27

27:                                               ; preds = %23
  store i32 1, ptr %3, align 4
  store i32 1, ptr %8, align 4
  br label %53

28:                                               ; preds = %23
  br label %29

29:                                               ; preds = %28, %20
  br label %30

30:                                               ; preds = %29, %16
  %31 = load ptr, ptr %4, align 8, !tbaa !4
  %32 = icmp ne ptr %31, null
  br i1 %32, label %33, label %37

33:                                               ; preds = %30
  %34 = load ptr, ptr %4, align 8, !tbaa !4
  %35 = load ptr, ptr %5, align 8, !tbaa !4
  %36 = call ptr @prefix_filename(ptr noundef %34, ptr noundef %35)
  store ptr %36, ptr %6, align 8, !tbaa !4
  store ptr %36, ptr %5, align 8, !tbaa !4
  br label %37

37:                                               ; preds = %33, %30
  %38 = load ptr, ptr %5, align 8, !tbaa !4
  %39 = call i32 @lstat64(ptr noundef %38, ptr noundef %7) #13
  %40 = icmp ne i32 %39, 0
  br i1 %40, label %43, label %41

41:                                               ; preds = %37
  %42 = load ptr, ptr %6, align 8, !tbaa !4
  call void @free(ptr noundef %42) #13
  store i32 1, ptr %3, align 4
  store i32 1, ptr %8, align 4
  br label %53

43:                                               ; preds = %37
  %44 = call ptr @__errno_location() #16
  %45 = load i32, ptr %44, align 4, !tbaa !9
  %46 = call i32 @is_missing_file_error(i32 noundef %45)
  %47 = icmp ne i32 %46, 0
  br i1 %47, label %48, label %50

48:                                               ; preds = %43
  %49 = load ptr, ptr %6, align 8, !tbaa !4
  call void @free(ptr noundef %49) #13
  store i32 0, ptr %3, align 4
  store i32 1, ptr %8, align 4
  br label %53

50:                                               ; preds = %43
  %51 = call ptr @_(ptr noundef @.str.6)
  %52 = load ptr, ptr %5, align 8, !tbaa !4
  call void (ptr, ...) @die_errno(ptr noundef %51, ptr noundef %52) #15
  unreachable

53:                                               ; preds = %48, %41, %27, %15
  call void @llvm.lifetime.end.p0(i64 144, ptr %7) #13
  call void @llvm.lifetime.end.p0(i64 8, ptr %6) #13
  %54 = load i32, ptr %3, align 4
  ret i32 %54
}