; Function Attrs: nounwind uwtable
define dso_local range(i32 0, 2) i32 @check_filename(ptr noundef %0, ptr noundef %1) local_unnamed_addr #0 {
  %3 = alloca %struct.stat, align 8
  call void @llvm.lifetime.start.p0(i64 144, ptr nonnull %3) #25
  %scevgep = getelementptr i8, ptr %1, i64 2
  br label %4

4:                                                ; preds = %5, %2
  %.07.i = phi ptr [ %1, %2 ], [ %7, %5 ]
  %.06.i.idx = phi i64 [ 0, %2 ], [ %.06.i.add, %5 ]
  %exitcond = icmp eq i64 %.06.i.idx, 2
  br i1 %exitcond, label %10, label %5

5:                                                ; preds = %4
  %.06.i.ptr = getelementptr inbounds nuw i8, ptr @.str.3, i64 %.06.i.idx
  %6 = load i8, ptr %.06.i.ptr, align 1, !tbaa !4
  %7 = getelementptr inbounds nuw i8, ptr %.07.i, i64 1
  %8 = load i8, ptr %.07.i, align 1, !tbaa !4
  %.06.i.add = add nuw nsw i64 %.06.i.idx, 1
  %9 = icmp eq i8 %8, %6
  br i1 %9, label %4, label %skip_prefix.exit, !llvm.loop !18

10:                                               ; preds = %4
  %11 = load i8, ptr %scevgep, align 1, !tbaa !4
  %.not6 = icmp eq i8 %11, 0
  br i1 %.not6, label %31, label %skip_prefix.exit17.thread29

skip_prefix.exit:                                 ; preds = %5, %12
  %.07.i10 = phi ptr [ %14, %12 ], [ %1, %5 ]
  %.06.i11.idx = phi i64 [ %.06.i11.add, %12 ], [ 0, %5 ]
  %exitcond45 = icmp eq i64 %.06.i11.idx, 2
  br i1 %exitcond45, label %skip_prefix.exit13.thread, label %12

12:                                               ; preds = %skip_prefix.exit
  %.06.i11.ptr = getelementptr inbounds nuw i8, ptr @.str.4, i64 %.06.i11.idx
  %13 = load i8, ptr %.06.i11.ptr, align 1, !tbaa !4
  %14 = getelementptr inbounds nuw i8, ptr %.07.i10, i64 1
  %15 = load i8, ptr %.07.i10, align 1, !tbaa !4
  %.06.i11.add = add nuw nsw i64 %.06.i11.idx, 1
  %16 = icmp eq i8 %15, %13
  br i1 %16, label %skip_prefix.exit, label %skip_prefix.exit13, !llvm.loop !18

skip_prefix.exit13:                               ; preds = %12, %17
  %.07.i14 = phi ptr [ %19, %17 ], [ %1, %12 ]
  %.06.i15.idx = phi i64 [ %.06.i15.add, %17 ], [ 0, %12 ]
  %exitcond47 = icmp eq i64 %.06.i15.idx, 2
  br i1 %exitcond47, label %skip_prefix.exit13.thread, label %17

17:                                               ; preds = %skip_prefix.exit13
  %.06.i15.ptr = getelementptr inbounds nuw i8, ptr @.str.5, i64 %.06.i15.idx
  %18 = load i8, ptr %.06.i15.ptr, align 1, !tbaa !4
  %19 = getelementptr inbounds nuw i8, ptr %.07.i14, i64 1
  %20 = load i8, ptr %.07.i14, align 1, !tbaa !4
  %.06.i15.add = add nuw nsw i64 %.06.i15.idx, 1
  %21 = icmp eq i8 %20, %18
  br i1 %21, label %skip_prefix.exit13, label %skip_prefix.exit17, !llvm.loop !18

skip_prefix.exit13.thread:                        ; preds = %skip_prefix.exit, %skip_prefix.exit13
  %22 = load i8, ptr %scevgep, align 1, !tbaa !4
  %.not = icmp eq i8 %22, 0
  br i1 %.not, label %31, label %skip_prefix.exit17

skip_prefix.exit17:                               ; preds = %17, %skip_prefix.exit13.thread
  %.024 = phi ptr [ %scevgep, %skip_prefix.exit13.thread ], [ %1, %17 ]
  %.not7 = icmp eq ptr %0, null
  br i1 %.not7, label %skip_prefix.exit17.thread29, label %23

23:                                               ; preds = %skip_prefix.exit17
  %24 = tail call ptr @prefix_filename(ptr noundef nonnull %0, ptr noundef %.024) #25
  br label %skip_prefix.exit17.thread29

skip_prefix.exit17.thread29:                      ; preds = %10, %23, %skip_prefix.exit17
  %.2 = phi ptr [ %.024, %skip_prefix.exit17 ], [ %24, %23 ], [ %scevgep, %10 ]
  %.0 = phi ptr [ null, %skip_prefix.exit17 ], [ %24, %23 ], [ null, %10 ]
  %25 = call i32 @lstat64(ptr noundef %.2, ptr noundef nonnull %3) #25
  %.not8 = icmp eq i32 %25, 0
  br i1 %.not8, label %.sink.split, label %26

26:                                               ; preds = %skip_prefix.exit17.thread29
  %27 = tail call ptr @__errno_location() #27
  %28 = load i32, ptr %27, align 4, !tbaa !7
  switch i32 %28, label %29 [
    i32 20, label %.sink.split
    i32 2, label %.sink.split
  ]

29:                                               ; preds = %26
  %30 = tail call fastcc ptr @_(ptr noundef nonnull @.str.6)
  tail call void (ptr, ...) @die_errno(ptr noundef %30, ptr noundef %.2) #26
  unreachable

.sink.split:                                      ; preds = %26, %26, %skip_prefix.exit17.thread29
  %.05.ph = phi i32 [ 1, %skip_prefix.exit17.thread29 ], [ 0, %26 ], [ 0, %26 ]
  tail call void @free(ptr noundef %.0) #25
  br label %31

31:                                               ; preds = %.sink.split, %skip_prefix.exit13.thread, %10
  %.05 = phi i32 [ 1, %10 ], [ 1, %skip_prefix.exit13.thread ], [ %.05.ph, %.sink.split ]
  call void @llvm.lifetime.end.p0(i64 144, ptr nonnull %3) #25
  ret i32 %.05
}